target datalayout = "e-m:e-p270:32:32-p271:32:32-p272:64:64-i64:64-i128:128-f80:128-n8:16:32:64-S128"
target triple = "x86_64-pc-linux-gnu"

%struct._packet_info = type { ptr, ptr, i32, i32, %struct.nstime_t, %struct.nstime_t, %struct.nstime_t, i8, ptr, ptr, ptr, ptr, %struct._address, %struct._address, %struct._address, %struct._address, %struct._address, %struct._address, i32, ptr, i8, [3 x i8], %struct.anon, i32, i32, i32, i32, ptr, i8, ptr, ptr, i16, i16, i32, i32, i16, i32, i32, ptr, ptr, ptr, i8, i8, i16, i16, i16, i32, i16, i16, ptr, ptr, ptr, ptr, ptr, i32, i32 }
%struct.nstime_t = type { i64, i32 }
%struct._address = type { i32, i32, ptr, ptr }
%struct.anon = type { i8, [3 x i8] }

@ndmp_desegment = internal global i8 1, align 1
@ndmp_defragment = internal global i8 1, align 1

; Function Attrs: null_pointer_is_valid sspstrong uwtable
define internal zeroext i1 @check_ndmp_rm(ptr noundef %0, ptr noundef %1) #0 {
  %3 = alloca i1, align 1
  %4 = alloca ptr, align 8
  %5 = alloca ptr, align 8
  %6 = alloca i32, align 4
  %7 = alloca i32, align 4
  %8 = alloca i32, align 4
  store ptr %0, ptr %4, align 8
  store ptr %1, ptr %5, align 8
  call void @llvm.lifetime.start.p0(i64 4, ptr %6) #9
  call void @llvm.lifetime.start.p0(i64 4, ptr %7) #9
  %9 = load ptr, ptr %5, align 8
  %10 = getelementptr inbounds nuw %struct._packet_info, ptr %9, i32 0, i32 24
  %11 = load i32, ptr %10, align 4
  %12 = icmp ne i32 %11, 10000
  br i1 %12, label %13, label %19

13:                                               ; preds = %2
  %14 = load ptr, ptr %5, align 8
  %15 = getelementptr inbounds nuw %struct._packet_info, ptr %14, i32 0, i32 25
  %16 = load i32, ptr %15, align 8
  %17 = icmp ne i32 %16, 10000
  br i1 %17, label %18, label %19

18:                                               ; preds = %13
  store i1 false, ptr %3, align 1
  store i32 1, ptr %8, align 4
  br label %36

19:                                               ; preds = %13, %2
  %20 = load ptr, ptr %4, align 8
  %21 = call i32 @tvb_captured_length(ptr noundef %20)
  store i32 %21, ptr %6, align 4
  %22 = load i32, ptr %6, align 4
  %23 = icmp uge i32 %22, 4
  br i1 %23, label %24, label %35

24:                                               ; preds = %19
  %25 = load ptr, ptr %4, align 8
  %26 = call i32 @tvb_get_ntohl(ptr noundef %25, i32 noundef 0)
  %27 = and i32 %26, 2147483647
  store i32 %27, ptr %7, align 4
  %28 = load i32, ptr %7, align 4
  %29 = icmp ult i32 %28, 1
  br i1 %29, label %33, label %30

30:                                               ; preds = %24
  %31 = load i32, ptr %7, align 4
  %32 = icmp ugt i32 %31, 1000000
  br i1 %32, label %33, label %34

33:                                               ; preds = %30, %24
  store i1 false, ptr %3, align 1
  store i32 1, ptr %8, align 4
  br label %36

34:                                               ; preds = %30
  br label %35

35:                                               ; preds = %34, %19
  store i1 true, ptr %3, align 1
  store i32 1, ptr %8, align 4
  br label %36

36:                                               ; preds = %35, %33, %18
  call void @llvm.lifetime.end.p0(i64 4, ptr %7) #9
  call void @llvm.lifetime.end.p0(i64 4, ptr %6) #9
  %37 = load i1, ptr %3, align 1
  ret i1 %37
}

; Function Attrs: null_pointer_is_valid sspstrong uwtable
define internal i32 @dissect_ndmp(ptr noundef %0, ptr noundef %1, ptr noundef %2, ptr noundef %3) #0 {
  %5 = alloca i32, align 4
  %6 = alloca ptr, align 8
  %7 = alloca ptr, align 8
  %8 = alloca ptr, align 8
  %9 = alloca ptr, align 8
  store ptr %0, ptr %6, align 8
  store ptr %1, ptr %7, align 8
  store ptr %2, ptr %8, align 8
  store ptr %3, ptr %9, align 8
  %10 = load i8, ptr @ndmp_defragment, align 1, !range !6, !noundef !7
  %11 = trunc i8 %10 to i1
  br i1 %11, label %12, label %17

12:                                               ; preds = %4
  %13 = load ptr, ptr %6, align 8
  %14 = load ptr, ptr %7, align 8
  %15 = call zeroext i1 @check_ndmp_rm(ptr noundef %13, ptr noundef %14)
  br i1 %15, label %17, label %16

16:                                               ; preds = %12
  store i32 0, ptr %5, align 4
  br label %37

17:                                               ; preds = %12, %4
  %18 = load i8, ptr @ndmp_desegment, align 1, !range !6, !noundef !7
  %19 = trunc i8 %18 to i1
  br i1 %19, label %20, label %23

20:                                               ; preds = %17
  %21 = load i8, ptr @ndmp_defragment, align 1, !range !6, !noundef !7
  %22 = trunc i8 %21 to i1
  br i1 %22, label %28, label %23

23:                                               ; preds = %20, %17
  %24 = load ptr, ptr %6, align 8
  %25 = load ptr, ptr %7, align 8
  %26 = call zeroext i1 @check_if_ndmp(ptr noundef %24, ptr noundef %25)
  br i1 %26, label %28, label %27

27:                                               ; preds = %23
  store i32 0, ptr %5, align 4
  br label %37

28:                                               ; preds = %23, %20
  %29 = load ptr, ptr %6, align 8
  %30 = load ptr, ptr %7, align 8
  %31 = load ptr, ptr %8, align 8
  %32 = load i8, ptr @ndmp_desegment, align 1, !range !6, !noundef !7
  %33 = trunc i8 %32 to i1
  %34 = load ptr, ptr %9, align 8
  call void @tcp_dissect_pdus(ptr noundef %29, ptr noundef %30, ptr noundef %31, i1 noundef zeroext %33, i32 noundef 4, ptr noundef @get_ndmp_pdu_len, ptr noundef @dissect_ndmp_message, ptr noundef %34)
  %35 = load ptr, ptr %6, align 8
  %36 = call i32 @tvb_captured_length(ptr noundef %35)
  store i32 %36, ptr %5, align 4
  br label %37

37:                                               ; preds = %28, %27, %16
  %38 = load i32, ptr %5, align 4
  ret i32 %38
}