; Function Attrs: null_pointer_is_valid sspstrong uwtable
define internal i32 @dissect_ndmp(ptr noundef %0, ptr noundef %1, ptr noundef %2, ptr noundef %3) #0 {
  %5 = load i8, ptr @ndmp_defragment, align 1, !range !6, !noundef !7
  %6 = trunc nuw i8 %5 to i1
  br i1 %6, label %7, label %check_ndmp_rm.exit

7:                                                ; preds = %4
  %8 = getelementptr inbounds nuw i8, ptr %1, i64 284
  %9 = load i32, ptr %8, align 4
  %.not.i = icmp eq i32 %9, 10000
  br i1 %.not.i, label %13, label %10

10:                                               ; preds = %7
  %11 = getelementptr inbounds nuw i8, ptr %1, i64 288
  %12 = load i32, ptr %11, align 8
  %.not8.i = icmp eq i32 %12, 10000
  br i1 %.not8.i, label %13, label %check_ndmp_rm.exit.thread

13:                                               ; preds = %10, %7
  %14 = tail call i32 @tvb_captured_length(ptr noundef %0)
  %15 = icmp ugt i32 %14, 3
  br i1 %15, label %16, label %check_ndmp_rm.exit

16:                                               ; preds = %13
  %17 = tail call i32 @tvb_get_ntohl(ptr noundef %0, i32 noundef 0)
  %18 = and i32 %17, 2147483647
  %19 = add nsw i32 %18, -1000001
  %or.cond.i = icmp ult i32 %19, -1000000
  br i1 %or.cond.i, label %check_ndmp_rm.exit.thread, label %check_ndmp_rm.exit

check_ndmp_rm.exit:                               ; preds = %16, %13, %4
  %20 = load i8, ptr @ndmp_desegment, align 1, !range !6, !noundef !7
  %21 = trunc nuw i8 %20 to i1
  br i1 %21, label %22, label %25

22:                                               ; preds = %check_ndmp_rm.exit
  %23 = load i8, ptr @ndmp_defragment, align 1, !range !6, !noundef !7
  %24 = trunc nuw i8 %23 to i1
  br i1 %24, label %27, label %25

25:                                               ; preds = %22, %check_ndmp_rm.exit
  %26 = tail call zeroext i1 @check_if_ndmp(ptr noundef %0, ptr noundef %1)
  br i1 %26, label %._crit_edge, label %check_ndmp_rm.exit.thread

._crit_edge:                                      ; preds = %25
  %.pre = load i8, ptr @ndmp_desegment, align 1, !range !6
  %.pre10 = trunc nuw i8 %.pre to i1
  br label %27

27:                                               ; preds = %._crit_edge, %22
  %.pre-phi = phi i1 [ %.pre10, %._crit_edge ], [ true, %22 ]
  tail call void @tcp_dissect_pdus(ptr noundef %0, ptr noundef %1, ptr noundef %2, i1 noundef zeroext %.pre-phi, i32 noundef 4, ptr noundef nonnull @get_ndmp_pdu_len, ptr noundef nonnull @dissect_ndmp_message, ptr noundef %3)
  %28 = tail call i32 @tvb_captured_length(ptr noundef %0)
  br label %check_ndmp_rm.exit.thread

check_ndmp_rm.exit.thread:                        ; preds = %16, %10, %25, %27
  %.0 = phi i32 [ %28, %27 ], [ 0, %25 ], [ 0, %10 ], [ 0, %16 ]
  ret i32 %.0
}